; Function Attrs: mustprogress nofree norecurse nosync nounwind willreturn memory(argmem: read) uwtable
define dso_local { ptr, i64 } @_ZNK4llvm19MachineTraceMetrics22getProcReleaseAtCyclesEj(ptr noundef nonnull readonly align 8 captures(none) dereferenceable(456) %0, i32 noundef %1) local_unnamed_addr #2 align 2 {
  %3 = getelementptr inbounds nuw i8, ptr %0, i64 144
  %4 = load i32, ptr %3, align 8
  %5 = getelementptr inbounds nuw i8, ptr %0, i64 424
  %6 = load ptr, ptr %5, align 8
  %7 = mul i32 %4, %1
  %8 = zext i32 %7 to i64
  %9 = getelementptr inbounds nuw i32, ptr %6, i64 %8
  %10 = zext i32 %4 to i64
  %.fca.0.insert = insertvalue { ptr, i64 } poison, ptr %9, 0
  %.fca.1.insert = insertvalue { ptr, i64 } %.fca.0.insert, i64 %10, 1
  ret { ptr, i64 } %.fca.1.insert
}